(lp1
(i__main__
UserTrajectory
p2
(dp3
S'trajectory'
p4
(lp5
(ipoints
StayPoint
p6
(dp7
S'latitude'
p8
cnumpy.core.multiarray
scalar
p9
(cnumpy
dtype
p10
(S'f8'
I0
I1
tRp11
(I3
S'<'
NNNI-1
I-1
I0
tbS'\x7fV\x8f\x95\xe2\xf8C@'
tRp12
sS'leaveTime'
p13
F1238901973
sS'longitude'
p14
g9
(g11
S'q\x12\x0en\t\x18]@'
tRp15
sS'arrivalTime'
p16
F1238897113
sbag6
ag6
ag6
ag6
ag6
ag6
ag6
ag6
ag6
ag6
ag6
ag6
ag6
ag6
ag6
asS'uid'
p17
I0
sba(i__main__
UserTrajectory
p18
(dp19
g4
(lp20
(ipoints
StayPoint
p21
(dp22
g8
g9
(g11
S'="\x97\xf0<\xfdC@'
tRp23
sg13
F1229225134
sg14
g9
(g11
S'\x9e\xc9\xba;\xee\x14]@'
tRp24
sg16
F1229215266
sbag21
ag21
ag21
ag21
ag21
ag21
ag21
ag21
ag21
ag21
ag21
ag21
ag21
ag21
ag21
ag21
ag21
ag21
ag21
ag21
ag21
ag21
ag21
ag21
ag21
ag21
ag21
ag21
asg17
I1
sba(i__main__
UserTrajectory
p25
(dp26
g4
(lp27
(ipoints
StayPoint
p28
(dp29
g8
g9
(g11
S',\x8eQ\xd4\x15\xf3C@'
tRp30
sg13
F1225656146
sg14
g9
(g11
S')\x82\xdf\xa1f\x18]@'
tRp31
sg16
F1225654706
sbag28
ag28
ag28
ag28
ag28
ag28
ag28
ag28
ag28
ag28
ag28
ag28
ag28
ag28
ag28
ag28
ag28
asg17
I2
sba(i__main__
UserTrajectory
p32
(dp33
g4
(lp34
(ipoints
StayPoint
p35
(dp36
g8
g9
(g11
S'1a\xd5\x197\x02@@'
tRp37
sg13
F1232677471
sg14
g9
(g11
S'\xb1\xc7\xf0\x9b 7^@'
tRp38
sg16
F1232668268
sbag35
ag35
ag35
ag35
ag35
ag35
ag35
ag35
ag35
ag35
ag35
ag35
ag35
ag35
ag35
ag35
ag35
ag35
ag35
ag35
ag35
ag35
ag35
ag35
ag35
ag35
ag35
ag35
ag35
ag35
ag35
ag35
ag35
ag35
ag35
ag35
ag35
ag35
ag35
ag35
ag35
ag35
ag35
ag35
asg17
I3
sba(i__main__
UserTrajectory
p39
(dp40
g4
(lp41
(ipoints
StayPoint
p42
(dp43
g8
g9
(g11
S'\x1b\x08\xc3\xea\xcc\xf9C@'
tRp44
sg13
F1239725713
sg14
g9
(g11
S'\xc4\xd2\x9e\x08K3]@'
tRp45
sg16
F1239687321
sbag42
ag42
ag42
ag42
ag42
ag42
ag42
ag42
ag42
ag42
ag42
ag42
ag42
ag42
ag42
ag42
ag42
ag42
ag42
ag42
ag42
ag42
ag42
ag42
ag42
ag42
ag42
ag42
ag42
ag42
ag42
ag42
ag42
ag42
ag42
ag42
ag42
ag42
ag42
ag42
ag42
ag42
ag42
ag42
ag42
ag42
ag42
ag42
ag42
ag42
ag42
ag42
ag42
ag42
ag42
ag42
ag42
ag42
ag42
ag42
ag42
ag42
ag42
ag42
ag42
ag42
ag42
ag42
ag42
ag42
ag42
ag42
ag42
ag42
ag42
ag42
ag42
ag42
ag42
ag42
ag42
ag42
ag42
ag42
ag42
ag42
ag42
ag42
ag42
ag42
ag42
ag42
ag42
ag42
ag42
ag42
ag42
ag42
ag42
ag42
ag42
ag42
ag42
ag42
ag42
ag42
ag42
ag42
ag42
ag42
ag42
ag42
ag42
ag42
ag42
ag42
ag42
ag42
ag42
ag42
ag42
ag42
ag42
ag42
ag42
asg17
I4
sba(i__main__
UserTrajectory
p46
(dp47
g4
(lp48
(ipoints
StayPoint
p49
(dp50
g8
g9
(g11
S'\x00a1\x03z\x01D@'
tRp51
sg13
F1231966841
sg14
g9
(g11
S"6'|+\x8f\x14]@"
tRp52
sg16
F1231944168
sbag49
ag49
ag49
ag49
ag49
ag49
ag49
ag49
ag49
ag49
ag49
ag49
ag49
ag49
ag49
ag49
ag49
ag49
ag49
ag49
ag49
ag49
ag49
asg17
I5
sba(i__main__
UserTrajectory
p53
(dp54
g4
(lp55
(ipoints
StayPoint
p56
(dp57
g8
g9
(g11
S'\xf8\n\xc38p\xfdC@'
tRp58
sg13
F1228767367
sg14
g9
(g11
S'\xed\xcb\xf0\xf6w\x15]@'
tRp59
sg16
F1228766142
sbag56
ag56
ag56
ag56
ag56
ag56
ag56
ag56
ag56
asg17
I6
sba(i__main__
UserTrajectory
p60
(dp61
g4
(lp62
(ipoints
StayPoint
p63
(dp64
g8
g9
(g11
S'\x81\xabOL\xf1\xfcC@'
tRp65
sg13
F1226199227
sg14
g9
(g11
S'DO\xca\xa4\x86\x15]@'
tRp66
sg16
F1226195862
sbag63
ag63
ag63
ag63
ag63
ag63
ag63
asg17
I7
sba(i__main__
UserTrajectory
p67
(dp68
g4
(lp69
(ipoints
StayPoint
p70
(dp71
g8
g9
(g11
S'\x90\xf6\xd9\xbe\xa6\xf3C@'
tRp72
sg13
F1226469750
sg14
g9
(g11
S'q\xa9\x8d\x8b\xd0\x1a]@'
tRp73
sg16
F1226464497
sbag70
ag70
ag70
ag70
ag70
ag70
ag70
asg17
I8
sba(i__main__
UserTrajectory
p74
(dp75
g4
(lp76
(ipoints
StayPoint
p77
(dp78
g8
g9
(g11
S'\tQ\xe7\x87]\x00D@'
tRp79
sg13
F1226811692
sg14
g9
(g11
S'\x1e\xef\xee\x86\x04\x16]@'
tRp80
sg16
F1226808547
sbag77
ag77
ag77
ag77
ag77
ag77
ag77
ag77
ag77
ag77
ag77
ag77
ag77
ag77
ag77
ag77
ag77
ag77
ag77
ag77
ag77
ag77
ag77
ag77
ag77
ag77
ag77
ag77
ag77
ag77
ag77
ag77
ag77
ag77
ag77
ag77
ag77
ag77
ag77
ag77
asg17
I9
sba(i__main__
UserTrajectory
p81
(dp82
g4
(lp83
(ipoints
StayPoint
p84
(dp85
g8
g9
(g11
S'"\x98\x14\rW1B@'
tRp86
sg13
F1222759842
sg14
g9
(g11
S'\xc5\x87&\x81\x07\xbaW@'
tRp87
sg16
F1222757263
sbag84
ag84
ag84
ag84
ag84
ag84
ag84
ag84
ag84
ag84
ag84
ag84
ag84
ag84
ag84
asg17
I10
sba(i__main__
UserTrajectory
p88
(dp89
g4
(lp90
(ipoints
StayPoint
p91
(dp92
g8
g9
(g11
S'\x9aJ\xd4E\xe9\xf7C@'
tRp93
sg13
F1225074885
sg14
g9
(g11
S'\x93.\xd4\xcc@\x16]@'
tRp94
sg16
F1225035951
sbag91
ag91
ag91
ag91
ag91
ag91
ag91
ag91
asg17
I11
sba(i__main__
UserTrajectory
p95
(dp96
g4
(lp97
(ipoints
StayPoint
p98
(dp99
g8
g9
(g11
S'e\xfd\xc8\xe9:>?@'
tRp100
sg13
F1226688144
sg14
g9
(g11
S'\xf0]\xac\xe4\xb2\\^@'
tRp101
sg16
F1226683237
sbag98
ag98
ag98
ag98
ag98
ag98
ag98
ag98
ag98
ag98
ag98
ag98
ag98
ag98
ag98
ag98
asg17
I12
sba(i__main__
UserTrajectory
p102
(dp103
g4
(lp104
(ipoints
StayPoint
p105
(dp106
g8
g9
(g11
S'\xb9:N\x07.\xfaC@'
tRp107
sg13
F1225430500
sg14
g9
(g11
S'{XwW\n\x1b]@'
tRp108
sg16
F1225418409
sbag105
ag105
ag105
ag105
asg17
I13
sba(i__main__
UserTrajectory
p109
(dp110
g4
(lp111
(ipoints
StayPoint
p112
(dp113
g8
g9
(g11
S'b\x03_X\xcf\xfdC@'
tRp114
sg13
F1224924315
sg14
g9
(g11
S'\x8e\x17\xf3\xef\x8a\x14]@'
tRp115
sg16
F1224922930
sbag112
ag112
ag112
ag112
ag112
ag112
ag112
ag112
ag112
ag112
ag112
ag112
ag112
ag112
ag112
ag112
ag112
asg17
I14
sba(i__main__
UserTrajectory
p116
(dp117
g4
(lp118
(ipoints
StayPoint
p119
(dp120
g8
g9
(g11
S'\xb3\x074\x127\xf9C@'
tRp121
sg13
F1235875255
sg14
g9
(g11
S'6\x94.\\\x1c2]@'
tRp122
sg16
F1235873860
sbag119
ag119
ag119
ag119
ag119
ag119
ag119
ag119
ag119
ag119
ag119
ag119
ag119
ag119
ag119
ag119
ag119
ag119
ag119
ag119
ag119
ag119
ag119
ag119
ag119
ag119
ag119
ag119
ag119
ag119
ag119
ag119
ag119
ag119
ag119
ag119
asg17
I15
sba(i__main__
UserTrajectory
p123
(dp124
g4
(lp125
(ipoints
StayPoint
p126
(dp127
g8
g9
(g11
S'\xf4\x03D\xae\xc1\xfcC@'
tRp128
sg13
F1226020117
sg14
g9
(g11
S'\xb2\xdc\xd2jH\x15]@'
tRp129
sg16
F1225986673
sbag126
ag126
ag126
ag126
ag126
ag126
ag126
ag126
ag126
ag126
ag126
ag126
ag126
ag126
asg17
I16
sba(i__main__
UserTrajectory
p130
(dp131
g4
(lp132
(ipoints
StayPoint
p133
(dp134
g8
g9
(g11
S'-AG\xac\xc6\x01D@'
tRp135
sg13
F1238723652
sg14
g9
(g11
S'\xa0"\xe3\xad\xcf\x15]@'
tRp136
sg16
F1238720814
sbag133
ag133
ag133
ag133
ag133
ag133
ag133
ag133
ag133
ag133
ag133
ag133
ag133
ag133
ag133
ag133
ag133
ag133
ag133
ag133
asg17
I17
sba(i__main__
UserTrajectory
p137
(dp138
g4
(lp139
(ipoints
StayPoint
p140
(dp141
g8
g9
(g11
S'\x11+\xb6\\\xd0\xeeC@'
tRp142
sg13
F1228989408
sg14
g9
(g11
S'?\xb0\xac\xfd\xa6\x18]@'
tRp143
sg16
F1228985302
sbag140
ag140
ag140
ag140
ag140
ag140
ag140
ag140
ag140
ag140
ag140
ag140
ag140
ag140
ag140
ag140
ag140
ag140
ag140
asg17
I18
sba(i__main__
UserTrajectory
p144
(dp145
g4
(lp146
(ipoints
StayPoint
p147
(dp148
g8
g9
(g11
S'\xbd\x11\x8aF\xf5\tD@'
tRp149
sg13
F1226614140
sg14
g9
(g11
S'b\xf1V\x9a\xd5!]@'
tRp150
sg16
F1226610481
sbag147
ag147
ag147
ag147
ag147
asg17
I19
sba(i__main__
UserTrajectory
p151
(dp152
g4
(lp153
(ipoints
StayPoint
p154
(dp155
g8
g9
(g11
S'f\x8e\xda4$\xfdC@'
tRp156
sg13
F1314552696
sg14
g9
(g11
S'\x04\xb7\xbf\xb3\n\x15]@'
tRp157
sg16
F1314549408
sbag154
ag154
ag154
ag154
ag154
ag154
asg17
I20
sba(i__main__
UserTrajectory
p158
(dp159
g4
(lp160
(ipoints
StayPoint
p161
(dp162
g8
g9
(g11
S'\xcd\xf0\x03\x8d\x005<@'
tRp163
sg13
F1177998947
sg14
g9
(g11
S'KR\xda\xc4t4]@'
tRp164
sg16
F1177996691
sbag161
ag161
ag161
ag161
ag161
ag161
ag161
ag161
ag161
ag161
asg17
I21
sba(i__main__
UserTrajectory
p165
(dp166
g4
(lp167
(ipoints
StayPoint
p168
(dp169
g8
g9
(g11
S'\xa5\x01\xe1u\x84QG@'
tRp170
sg13
F1232481561
sg14
g9
(g11
S',R\x8cR\xa89_@'
tRp171
sg16
F1232480114
sbag168
ag168
ag168
ag168
ag168
ag168
ag168
ag168
ag168
ag168
ag168
ag168
ag168
ag168
ag168
ag168
ag168
ag168
ag168
ag168
ag168
ag168
ag168
ag168
ag168
ag168
ag168
ag168
ag168
ag168
ag168
ag168
ag168
ag168
ag168
ag168
ag168
asg17
I22
sba(i__main__
UserTrajectory
p172
(dp173
g4
(lp174
(ipoints
StayPoint
p175
(dp176
g8
g9
(g11
S'\xee\xd3|F\xc0\x9aB@'
tRp177
sg13
F1232081584
sg14
g9
(g11
S'\x99K\x87\xb0V\x9e\\@'
tRp178
sg16
F1232076244
sbag175
ag175
ag175
ag175
ag175
ag175
ag175
ag175
ag175
ag175
ag175
ag175
ag175
ag175
ag175
ag175
ag175
ag175
ag175
ag175
ag175
ag175
ag175
ag175
ag175
ag175
ag175
ag175
ag175
ag175
ag175
ag175
asg17
I23
sba(i__main__
UserTrajectory
p179
(dp180
g4
(lp181
(ipoints
StayPoint
p182
(dp183
g8
g9
(g11
S'>u\xad%a\xc4C@'
tRp184
sg13
F1235449362
sg14
g9
(g11
S'\xfd\xc3\xb3\xd8\xe2.]@'
tRp185
sg16
F1235434677
sbag182
ag182
ag182
ag182
ag182
ag182
ag182
ag182
ag182
ag182
ag182
ag182
ag182
ag182
ag182
ag182
ag182
ag182
ag182
ag182
asg17
I24
sba(i__main__
UserTrajectory
p186
(dp187
g4
(lp188
(ipoints
StayPoint
p189
(dp190
g8
g9
(g11
S'\xd8\xd55\xcb:z>@'
tRp191
sg13
F1242270950
sg14
g9
(g11
S'\x01\xf1\t\xdd<\x98\\@'
tRp192
sg16
F1242267766
sbag189
ag189
ag189
ag189
asg17
I25
sba(i__main__
UserTrajectory
p193
(dp194
g4
(lp195
(ipoints
StayPoint
p196
(dp197
g8
g9
(g11
S'\xe1\xecJ\x13\xcf\xe4B@'
tRp198
sg13
F1232342451
sg14
g9
(g11
S'\xe0\xb7f%0&\\@'
tRp199
sg16
F1232340975
sbag196
ag196
ag196
ag196
ag196
ag196
ag196
ag196
ag196
ag196
ag196
ag196
asg17
I26
sba(i__main__
UserTrajectory
p200
(dp201
g4
(lp202
(ipoints
StayPoint
p203
(dp204
g8
g9
(g11
S'o9\xafk\xa9\xfcC@'
tRp205
sg13
F1231881412
sg14
g9
(g11
S'M{\x935K\x15]@'
tRp206
sg16
F1231878154
sbag203
ag203
asg17
I27
sba(i__main__
UserTrajectory
p207
(dp208
g4
(lp209
(ipoints
StayPoint
p210
(dp211
g8
g9
(g11
S'\x00\x848\xdd\x08\xf4C@'
tRp212
sg13
F1233365921
sg14
g9
(g11
S'\x0c\x9f7{\x08\x11]@'
tRp213
sg16
F1233364605
sbag210
ag210
ag210
ag210
asg17
I28
sba(i__main__
UserTrajectory
p214
(dp215
g4
(lp216
(ipoints
StayPoint
p217
(dp218
g8
g9
(g11
S'\x9b\t\xfa\xc9 \xe6C@'
tRp219
sg13
F1237338364
sg14
g9
(g11
S'\xea\xd4[$)!]@'
tRp220
sg16
F1237306332
sbag217
ag217
ag217
ag217
ag217
ag217
ag217
asg17
I29
sba(i__main__
UserTrajectory
p221
(dp222
g4
(lp223
(ipoints
StayPoint
p224
(dp225
g8
g9
(g11
S'>\t\xb8\t@\xf4C@'
tRp226
sg13
F1244349225
sg14
g9
(g11
S'"\xa73\xbf\xf4\x1d]@'
tRp227
sg16
F1244346404
sbag224
ag224
ag224
ag224
ag224
ag224
ag224
ag224
ag224
ag224
ag224
ag224
ag224
ag224
ag224
ag224
ag224
ag224
ag224
ag224
ag224
ag224
ag224
ag224
ag224
ag224
ag224
ag224
ag224
ag224
ag224
ag224
ag224
ag224
ag224
ag224
ag224
ag224
ag224
ag224
ag224
ag224
ag224
ag224
ag224
ag224
ag224
ag224
ag224
ag224
ag224
ag224
ag224
ag224
ag224
asg17
I30
sba(i__main__
UserTrajectory
p228
(dp229
g4
(lp230
(ipoints
StayPoint
p231
(dp232
g8
g9
(g11
S'\xe6D\x16\xc4\x9b\xf8C@'
tRp233
sg13
F1232723909
sg14
g9
(g11
S'\x83\x13\xd1\xaf\xad\x1b]@'
tRp234
sg16
F1232722656
sbag231
ag231
ag231
asg17
I31
sba(i__main__
UserTrajectory
p235
(dp236
g4
(lp237
(ipoints
StayPoint
p238
(dp239
g8
g9
(g11
S's\xfd}\xd0\x9f\xfcC@'
tRp240
sg13
F1229579729
sg14
g9
(g11
S'\x93[ \x99^\x15]@'
tRp241
sg16
F1229576414
sbag238
ag238
ag238
ag238
ag238
ag238
ag238
ag238
ag238
ag238
ag238
asg17
I32
sba(i__main__
UserTrajectory
p242
(dp243
g4
(lp244
(ipoints
StayPoint
p245
(dp246
g8
g9
(g11
S'\xca]6\x02J\xfeC@'
tRp247
sg13
F1231996292
sg14
g9
(g11
S'\x02Z\xc6\x0b\xaf,]@'
tRp248
sg16
F1231992847
sbag245
ag245
ag245
ag245
ag245
ag245
ag245
ag245
ag245
ag245
ag245
ag245
asg17
I33
sba(i__main__
UserTrajectory
p249
(dp250
g4
(lp251
(ipoints
StayPoint
p252
(dp253
g8
g9
(g11
S'\xa4*\x986\xb4\xfdC@'
tRp254
sg13
F1238635396
sg14
g9
(g11
S'\x90\xf8\xcb\xdd\x9d\x13]@'
tRp255
sg16
F1238631515
sbag252
ag252
ag252
ag252
ag252
ag252
ag252
asg17
I34
sba(i__main__
UserTrajectory
p256
(dp257
g4
(lp258
(ipoints
StayPoint
p259
(dp260
g8
g9
(g11
S'-\xf0\xdf\xc2*\xfdC@'
tRp261
sg13
F1236549651
sg14
g9
(g11
S'\xd0W\x92>=\x13]@'
tRp262
sg16
F1236539376
sbag259
ag259
ag259
ag259
ag259
ag259
ag259
ag259
ag259
ag259
ag259
ag259
ag259
ag259
ag259
ag259
ag259
ag259
ag259
ag259
ag259
ag259
ag259
ag259
ag259
ag259
ag259
ag259
ag259
ag259
ag259
ag259
ag259
ag259
ag259
ag259
ag259
ag259
ag259
ag259
ag259
ag259
ag259
ag259
ag259
ag259
ag259
ag259
ag259
ag259
ag259
ag259
ag259
ag259
ag259
ag259
ag259
ag259
ag259
ag259
ag259
ag259
ag259
ag259
ag259
ag259
ag259
ag259
ag259
ag259
ag259
ag259
ag259
ag259
ag259
ag259
ag259
ag259
ag259
ag259
ag259
ag259
ag259
ag259
ag259
ag259
ag259
ag259
ag259
ag259
ag259
ag259
ag259
ag259
ag259
ag259
ag259
ag259
ag259
ag259
ag259
ag259
ag259
ag259
ag259
ag259
ag259
ag259
ag259
ag259
ag259
ag259
ag259
ag259
ag259
ag259
ag259
ag259
ag259
ag259
ag259
ag259
ag259
ag259
ag259
ag259
ag259
ag259
ag259
ag259
ag259
ag259
ag259
ag259
ag259
ag259
ag259
ag259
ag259
ag259
ag259
ag259
ag259
ag259
ag259
ag259
ag259
ag259
asg17
I35
sba(i__main__
UserTrajectory
p263
(dp264
g4
(lp265
(ipoints
StayPoint
p266
(dp267
g8
g9
(g11
S'\xf1\xb7\xe1\x1b\xae\xe9C@'
tRp268
sg13
F1247160777
sg14
g9
(g11
S'RP\x94\x8e|\x04]@'
tRp269
sg16
F1247112689
sbag266
ag266
ag266
ag266
ag266
ag266
ag266
ag266
ag266
ag266
ag266
ag266
ag266
ag266
ag266
ag266
ag266
ag266
asg17
I36
sba(i__main__
UserTrajectory
p270
(dp271
g4
(lp272
(ipoints
StayPoint
p273
(dp274
g8
g9
(g11
S'Z\xa6\x15\x95C\xf3C@'
tRp275
sg13
F1248145283
sg14
g9
(g11
S'\xce\x12\tKa\x18]@'
tRp276
sg16
F1248132137
sbag273
ag273
ag273
ag273
ag273
ag273
ag273
ag273
asg17
I37
sba(i__main__
UserTrajectory
p277
(dp278
g4
(lp279
(ipoints
StayPoint
p280
(dp281
g8
g9
(g11
S'11\xb5\xa8\xcb\xfbC@'
tRp282
sg13
F1234069863
sg14
g9
(g11
S'P\xc4\xbc\xdbK\x14]@'
tRp283
sg16
F1234066475
sbag280
ag280
ag280
ag280
ag280
ag280
ag280
ag280
ag280
ag280
ag280
ag280
ag280
asg17
I38
sba(i__main__
UserTrajectory
p284
(dp285
g4
(lp286
(ipoints
StayPoint
p287
(dp288
g8
g9
(g11
S'\x8e\xc9Q\xaa\xab\xf2C@'
tRp289
sg13
F1244604840
sg14
g9
(g11
S'\xdbZ\xa4L)\x1d]@'
tRp290
sg16
F1244602158
sbag287
ag287
ag287
ag287
ag287
ag287
ag287
ag287
ag287
ag287
ag287
ag287
ag287
ag287
ag287
ag287
ag287
ag287
ag287
asg17
I39
sba(i__main__
UserTrajectory
p291
(dp292
g4
(lp293
(ipoints
StayPoint
p294
(dp295
g8
g9
(g11
S'p\x1aI\xa1\xc0\xf9C@'
tRp296
sg13
F1237910809
sg14
g9
(g11
S'waN\xe2/\x17]@'
tRp297
sg16
F1237907539
sbag294
ag294
ag294
ag294
ag294
ag294
ag294
ag294
ag294
ag294
ag294
ag294
ag294
ag294
ag294
asg17
I40
sba(i__main__
UserTrajectory
p298
(dp299
g4
(lp300
(ipoints
StayPoint
p301
(dp302
g8
g9
(g11
S'\x19)\x81\xba\xfe\xedC@'
tRp303
sg13
F1240897489
sg14
g9
(g11
S'\xdd!FPy\x10]@'
tRp304
sg16
F1240895922
sbag301
ag301
ag301
ag301
ag301
ag301
ag301
ag301
ag301
asg17
I41
sba(i__main__
UserTrajectory
p305
(dp306
g4
(lp307
(ipoints
StayPoint
p308
(dp309
g8
g9
(g11
S'\xc3!(^\xb4\xf4C@'
tRp310
sg13
F1239160936
sg14
g9
(g11
S'\x81\x8d%}+\x1d]@'
tRp311
sg16
F1239158858
sbag308
ag308
ag308
ag308
ag308
ag308
asg17
I42
sba(i__main__
UserTrajectory
p312
(dp313
g4
(lp314
(ipoints
StayPoint
p315
(dp316
g8
g9
(g11
S'%\xb8\xba\xa0\x96\xf1C@'
tRp317
sg13
F1245796692
sg14
g9
(g11
S'\xb0\x03K\xfdz+]@'
tRp318
sg16
F1245786480
sbag315
ag315
ag315
ag315
ag315
ag315
ag315
ag315
ag315
ag315
ag315
ag315
ag315
ag315
ag315
ag315
asg17
I43
sba(i__main__
UserTrajectory
p319
(dp320
g4
(lp321
(ipoints
StayPoint
p322
(dp323
g8
g9
(g11
S'\xed%\x8e\x8c\x1e\nD@'
tRp324
sg13
F1239606029
sg14
g9
(g11
S'R\xc0d\xd8\xdc\x14]@'
tRp325
sg16
F1239598759
sbag322
ag322
ag322
ag322
ag322
ag322
ag322
ag322
ag322
ag322
ag322
ag322
ag322
ag322
ag322
ag322
ag322
ag322
asg17
I44
sba(i__main__
UserTrajectory
p326
(dp327
g4
(lp328
(ipoints
StayPoint
p329
(dp330
g8
g9
(g11
S'\x96kvIA\xf3C@'
tRp331
sg13
F1277523559
sg14
g9
(g11
S'\xc3/\x06 \xff\x18]@'
tRp332
sg16
F1277522194
sbag329
asg17
I45
sba(i__main__
UserTrajectory
p333
(dp334
g4
(lp335
(ipoints
StayPoint
p336
(dp337
g8
g9
(g11
S'\xf1\x85\n\x90\xa5\xf4C@'
tRp338
sg13
F1255239442
sg14
g9
(g11
S'*\xdftM\x85\x17]@'
tRp339
sg16
F1255221394
sbag336
ag336
ag336
asg17
I46
sba(i__main__
UserTrajectory
p340
(dp341
g4
(lp342
(ipoints
StayPoint
p343
(dp344
g8
g9
(g11
S'bn\xbc\xb1\xb4\x93C@'
tRp345
sg13
F1186202409
sg14
g9
(g11
S'\xfb<\xa7\xd0RI]@'
tRp346
sg16
F1186200267
sbag343
ag343
ag343
ag343
ag343
ag343
ag343
ag343
asg17
I47
sba(i__main__
UserTrajectory
p347
(dp348
g4
(lp349
(ipoints
StayPoint
p350
(dp351
g8
g9
(g11
S'ZxFrg\x7fD@'
tRp352
sg13
F1251989010
sg14
g9
(g11
S'\x03\xe6\xe3\x01\x17|]@'
tRp353
sg16
F1251976324
sbag350
ag350
ag350
ag350
asg17
I48
sba(i__main__
UserTrajectory
p354
(dp355
g4
(lp356
sg17
I49
sba(i__main__
UserTrajectory
p357
(dp358
g4
(lp359
(ipoints
StayPoint
p360
(dp361
g8
g9
(g11
S'\xa0V\xcd\xc9\xf4\xf3C@'
tRp362
sg13
F1249604764
sg14
g9
(g11
S'X\x046e\xdf(]@'
tRp363
sg16
F1249593942
sbag360
ag360
ag360
ag360
ag360
ag360
ag360
ag360
ag360
ag360
ag360
ag360
ag360
ag360
ag360
asg17
I50
sba(i__main__
UserTrajectory
p364
(dp365
g4
(lp366
(ipoints
StayPoint
p367
(dp368
g8
g9
(g11
S'\xda\xa2\xb2\x88\n\xc6@@'
tRp369
sg13
F1203444185
sg14
g9
(g11
S'\xc06\x05\x9as\xf3\\@'
tRp370
sg16
F1203442957
sbag367
ag367
ag367
ag367
ag367
ag367
ag367
ag367
ag367
ag367
ag367
ag367
ag367
ag367
ag367
ag367
ag367
ag367
asg17
I51
sba(i__main__
UserTrajectory
p371
(dp372
g4
(lp373
(ipoints
StayPoint
p374
(dp375
g8
g9
(g11
S'\xc4"(\x8c\x15\xfeC@'
tRp376
sg13
F1212626043
sg14
g9
(g11
S'\xf8\xddA\xc7\x91\x16]@'
tRp377
sg16
F1212598067
sbag374
ag374
ag374
ag374
ag374
ag374
ag374
ag374
asg17
I52
sba(i__main__
UserTrajectory
p378
(dp379
g4
(lp380
(ipoints
StayPoint
p381
(dp382
g8
g9
(g11
S'm6\xf4\xda\x1d\xfcC@'
tRp383
sg13
F1209688542
sg14
g9
(g11
S'3\xae\xb5\xa8\xed\xe2]@'
tRp384
sg16
F1209687215
sbag381
ag381
ag381
asg17
I53
sba(i__main__
UserTrajectory
p385
(dp386
g4
(lp387
(ipoints
StayPoint
p388
(dp389
g8
g9
(g11
S'\xb7y\xe3\xa4\x00\xf4C@'
tRp390
sg13
F1245475858
sg14
g9
(g11
S'\xf1\xc2\xd6l\x8d\x11]@'
tRp391
sg16
F1245472407
sbasg17
I54
sba(i__main__
UserTrajectory
p392
(dp393
g4
(lp394
(ipoints
StayPoint
p395
(dp396
g8
g9
(g11
S'\x0c\xea\x1a\xab\x90\xf9C@'
tRp397
sg13
F1314208127
sg14
g9
(g11
S'\xb6\xff\xd3e\x07\x1d]@'
tRp398
sg16
F1314205758
sbag395
ag395
ag395
ag395
ag395
ag395
asg17
I55
sba(i__main__
UserTrajectory
p399
(dp400
g4
(lp401
(ipoints
StayPoint
p402
(dp403
g8
g9
(g11
S'\x9e\xe4\xbf\xde\x88\xfeC@'
tRp404
sg13
F1210901497
sg14
g9
(g11
S'6{, \xab\x0c]@'
tRp405
sg16
F1210889009
sbag402
ag402
ag402
ag402
ag402
ag402
asg17
I56
sba(i__main__
UserTrajectory
p406
(dp407
g4
(lp408
(ipoints
StayPoint
p409
(dp410
g8
g9
(g11
S'7`\xff\x9f\xf1\xfcC@'
tRp411
sg13
F1186327991
sg14
g9
(g11
S'\xe6\x85V\xbc\xa8\x15]@'
tRp412
sg16
F1186300445
sbag409
ag409
ag409
ag409
ag409
ag409
ag409
ag409
ag409
ag409
asg17
I57
sba(i__main__
UserTrajectory
p413
(dp414
g4
(lp415
(ipoints
StayPoint
p416
(dp417
g8
g9
(g11
S'\xf4\x98m\x16t\xfdC@'
tRp418
sg13
F1314589860
sg14
g9
(g11
S'E\xc9&\x15\x05\x15]@'
tRp419
sg16
F1314588010
sbag416
ag416
ag416
ag416
ag416
asg17
I58
sba(i__main__
UserTrajectory
p420
(dp421
g4
(lp422
(ipoints
StayPoint
p423
(dp424
g8
g9
(g11
S'\xf4\x98m\x16t\xfdC@'
tRp425
sg13
F1314589860
sg14
g9
(g11
S'E\xc9&\x15\x05\x15]@'
tRp426
sg16
F1314588010
sbag423
ag423
ag423
ag423
asg17
I59
sba(i__main__
UserTrajectory
p427
(dp428
g4
(lp429
(ipoints
StayPoint
p430
(dp431
g8
g9
(g11
S'\xef\xb7P\x0c\xa3\xfdC@'
tRp432
sg13
F1187545909
sg14
g9
(g11
S'\xfb\x9e\x1fF\x08\x15]@'
tRp433
sg16
F1187382377
sbasg17
I60
sba(i__main__
UserTrajectory
p434
(dp435
g4
(lp436
(ipoints
StayPoint
p437
(dp438
g8
g9
(g11
S'd\xfd\xb1<\x86\xe9C@'
tRp439
sg13
F1186273045
sg14
g9
(g11
S'Cc\x84\xf6;\xdb]@'
tRp440
sg16
F1186254720
sbag437
ag437
ag437
ag437
ag437
ag437
ag437
ag437
ag437
ag437
ag437
asg17
I61
sba(i__main__
UserTrajectory
p441
(dp442
g4
(lp443
(ipoints
StayPoint
p444
(dp445
g8
g9
(g11
S'w7\x05\xe8\xed\xfdC@'
tRp446
sg13
F1214280440
sg14
g9
(g11
S'\x10\xbd\xad\xc9u\x16]@'
tRp447
sg16
F1214278360
sbag444
ag444
ag444
ag444
ag444
ag444
ag444
ag444
ag444
ag444
asg17
I62
sba(i__main__
UserTrajectory
p448
(dp449
g4
(lp450
(ipoints
StayPoint
p451
(dp452
g8
g9
(g11
S'\x98\x9a\xd7}R\xd7?@'
tRp453
sg13
F1291814327
sg14
g9
(g11
S'\x82\xcc\x99\xd0\xdfO]@'
tRp454
sg16
F1291813087
sbag451
ag451
ag451
ag451
ag451
ag451
ag451
asg17
I63
sba(i__main__
UserTrajectory
p455
(dp456
g4
(lp457
(ipoints
StayPoint
p458
(dp459
g8
g9
(g11
S'\xc7\xf4qZ\xdd\xfcC@'
tRp460
sg13
F1220080362
sg14
g9
(g11
S'sb\x0f\xed#\x15]@'
tRp461
sg16
F1220032386
sbag458
ag458
ag458
ag458
ag458
ag458
ag458
ag458
ag458
asg17
I64
sba(i__main__
UserTrajectory
p462
(dp463
g4
(lp464
(ipoints
StayPoint
p465
(dp466
g8
g9
(g11
S'\xb8\xd3\xdd\xb2\xba\xf3C@'
tRp467
sg13
F1317798838
sg14
g9
(g11
S'\x90\x86\xeaN\xcd\x0b]@'
tRp468
sg16
F1317796787
sbag465
ag465
ag465
ag465
ag465
ag465
ag465
ag465
ag465
ag465
ag465
ag465
ag465
ag465
ag465
asg17
I65
sba(i__main__
UserTrajectory
p469
(dp470
g4
(lp471
(ipoints
StayPoint
p472
(dp473
g8
g9
(g11
S'\xd6=\xb2\xb9j\xb3C@'
tRp474
sg13
F1254981109
sg14
g9
(g11
S'\xf4\x17z\xc4h$]@'
tRp475
sg16
F1254975956
sbag472
ag472
ag472
ag472
ag472
ag472
asg17
I66
sba(i__main__
UserTrajectory
p476
(dp477
g4
(lp478
(ipoints
StayPoint
p479
(dp480
g8
g9
(g11
S'%\xc2X\\/\xfdC@'
tRp481
sg13
F1306086686
sg14
g9
(g11
S'>\xf2$\xe6<\x15]@'
tRp482
sg16
F1306084773
sbag479
ag479
ag479
ag479
ag479
ag479
ag479
ag479
ag479
ag479
ag479
ag479
ag479
ag479
ag479
ag479
ag479
ag479
ag479
ag479
ag479
ag479
asg17
I67
sba(i__main__
UserTrajectory
p483
(dp484
g4
(lp485
(ipoints
StayPoint
p486
(dp487
g8
g9
(g11
S'\x96i8s\xde\x8c>@'
tRp488
sg13
F1248933098
sg14
g9
(g11
S'\x19\xac\xa2\xbe\xc5\x92\\@'
tRp489
sg16
F1248931696
sbag486
ag486
ag486
ag486
ag486
ag486
ag486
ag486
ag486
ag486
ag486
ag486
ag486
ag486
ag486
ag486
ag486
ag486
ag486
ag486
ag486
ag486
ag486
ag486
ag486
ag486
ag486
ag486
ag486
ag486
ag486
ag486
ag486
ag486
ag486
ag486
ag486
asg17
I68
sba(i__main__
UserTrajectory
p490
(dp491
g4
(lp492
(ipoints
StayPoint
p493
(dp494
g8
g9
(g11
S'\xf3$\x12\xc0\x83\xf5C@'
tRp495
sg13
F1211867065
sg14
g9
(g11
S'\xe93{\xc84\x13]@'
tRp496
sg16
F1211864656
sbag493
ag493
ag493
ag493
ag493
ag493
ag493
ag493
ag493
ag493
ag493
ag493
ag493
asg17
I69
sba(i__main__
UserTrajectory
p497
(dp498
g4
(lp499
(ipoints
StayPoint
p500
(dp501
g8
g9
(g11
S'\xe1\xd1A\x8f\xff\xd2C@'
tRp502
sg13
F1222626600
sg14
g9
(g11
S'\xbc1\x00\xfep\x8a]@'
tRp503
sg16
F1222621218
sbag500
ag500
ag500
asg17
I70
sba(i__main__
UserTrajectory
p504
(dp505
g4
(lp506
(ipoints
StayPoint
p507
(dp508
g8
g9
(g11
S'\x7f\x8aF\xec\xb4\xe9E@'
tRp509
sg13
F1325348466
sg14
g9
(g11
S'\x9d\xd7\xa8\x88\xb5Q_@'
tRp510
sg16
F1325346441
sbag507
ag507
ag507
ag507
ag507
ag507
ag507
asg17
I71
sba(i__main__
UserTrajectory
p511
(dp512
g4
(lp513
(ipoints
StayPoint
p514
(dp515
g8
g9
(g11
S'\x0e\xbe0\x99*\xffC@'
tRp516
sg13
F1184909988
sg14
g9
(g11
S'\xfc\x17p\xa9\xdd\x14]@'
tRp517
sg16
F1184900919
sbag514
asg17
I72
sba(i__main__
UserTrajectory
p518
(dp519
g4
(lp520
(ipoints
StayPoint
p521
(dp522
g8
g9
(g11
S'\xb4\x80\xdb\xa3\xcf\xeeC@'
tRp523
sg13
F1212215996
sg14
g9
(g11
S'\\\xe1\xfa\x03\xa7\x1f]@'
tRp524
sg16
F1212212887
sbag521
ag521
ag521
ag521
ag521
ag521
ag521
ag521
ag521
ag521
ag521
ag521
ag521
asg17
I73
sba(i__main__
UserTrajectory
p525
(dp526
g4
(lp527
sg17
I74
sba(i__main__
UserTrajectory
p528
(dp529
g4
(lp530
(ipoints
StayPoint
p531
(dp532
g8
g9
(g11
S'\x0c\xea\x1a\xab\x90\xf9C@'
tRp533
sg13
F1314208127
sg14
g9
(g11
S'\xb6\xff\xd3e\x07\x1d]@'
tRp534
sg16
F1314205758
sbag531
ag531
ag531
ag531
asg17
I75
sba(i__main__
UserTrajectory
p535
(dp536
g4
(lp537
sg17
I76
sba(i__main__
UserTrajectory
p538
(dp539
g4
(lp540
(ipoints
StayPoint
p541
(dp542
g8
g9
(g11
S'\x86\x1c[\xcf\x10\xf8C@'
tRp543
sg13
F1253459913
sg14
g9
(g11
S'\x85\xc6\x13A\x9c\x17]@'
tRp544
sg16
F1253458263
sbag541
ag541
ag541
ag541
ag541
ag541
asg17
I77
sba(i__main__
UserTrajectory
p545
(dp546
g4
(lp547
(ipoints
StayPoint
p548
(dp549
g8
g9
(g11
S'0\xab\x80Rp\xfcC@'
tRp550
sg13
F1217261627
sg14
g9
(g11
S'v\xb1\x94\x02\xd6\x14]@'
tRp551
sg16
F1217230505
sbag548
ag548
ag548
ag548
ag548
ag548
ag548
ag548
ag548
asg17
I78
sba(i__main__
UserTrajectory
p552
(dp553
g4
(lp554
(ipoints
StayPoint
p555
(dp556
g8
g9
(g11
S'(z\x9f(\xcc\xfcC@'
tRp557
sg13
F1274936184
sg14
g9
(g11
S'\xd1\xfb\x81\xaf)\x15]@'
tRp558
sg16
F1274896665
sbasg17
I79
sba(i__main__
UserTrajectory
p559
(dp560
g4
(lp561
sg17
I80
sba(i__main__
UserTrajectory
p562
(dp563
g4
(lp564
(ipoints
StayPoint
p565
(dp566
g8
g9
(g11
S'W\xc2Ok\xfc\xfeC@'
tRp567
sg13
F1211570784
sg14
g9
(g11
S'\x02\xcch\x0c\xea\x14]@'
tRp568
sg16
F1211567067
sbag565
ag565
ag565
ag565
ag565
ag565
ag565
ag565
ag565
ag565
asg17
I81
sba(i__main__
UserTrajectory
p569
(dp570
g4
(lp571
(ipoints
StayPoint
p572
(dp573
g8
g9
(g11
S'\xc0S\xa9\xc1\xf7\xd0G@'
tRp574
sg13
F1218923966
sg14
g9
(g11
S'\x94/Bq\x13\x89^\xc0'
tRp575
sg16
F1218919410
sbag572
ag572
ag572
ag572
ag572
ag572
ag572
asg17
I82
sba(i__main__
UserTrajectory
p576
(dp577
g4
(lp578
(ipoints
StayPoint
p579
(dp580
g8
g9
(g11
S'1_\xf2\x8c\x15\xfdC@'
tRp581
sg13
F1236551389
sg14
g9
(g11
S'\xdbR\xb6\xe0\xdb\x19]@'
tRp582
sg16
F1236543992
sbag579
ag579
ag579
ag579
ag579
ag579
ag579
ag579
ag579
ag579
ag579
asg17
I83
sba(i__main__
UserTrajectory
p583
(dp584
g4
(lp585
(ipoints
StayPoint
p586
(dp587
g8
g9
(g11
S'#\xac\x05\xef\xb5\x1fA@'
tRp588
sg13
F1222359234
sg14
g9
(g11
S'5\x0e\xcd\x1a\xb2=[@'
tRp589
sg16
F1222356486
sbag586
ag586
ag586
ag586
ag586
ag586
ag586
ag586
ag586
ag586
asg17
I84
sba(i__main__
UserTrajectory
p590
(dp591
g4
(lp592
(ipoints
StayPoint
p593
(dp594
g8
g9
(g11
S'1v\xc0\xb1\r\xf3C@'
tRp595
sg13
F1225991711
sg14
g9
(g11
S'\xad\xb1\xb2\xb8\xc3\x15]@'
tRp596
sg16
F1225949567
sbag593
ag593
ag593
ag593
ag593
ag593
ag593
ag593
ag593
ag593
ag593
ag593
ag593
ag593
ag593
ag593
ag593
ag593
ag593
ag593
asg17
I85
sba(i__main__
UserTrajectory
p597
(dp598
g4
(lp599
(ipoints
StayPoint
p600
(dp601
g8
g9
(g11
S'\x1e\xee\x10\xec\xe5\xfcC@'
tRp602
sg13
F1177881209
sg14
g9
(g11
S'}\x08\xf6r2\x15]@'
tRp603
sg16
F1177873447
sbag600
asg17
I86
sba(i__main__
UserTrajectory
p604
(dp605
g4
(lp606
(ipoints
StayPoint
p607
(dp608
g8
g9
(g11
S'>Ur;!\xfdC@'
tRp609
sg13
F1187333702
sg14
g9
(g11
S'\x13\x8euq\x1b\x15]@'
tRp610
sg16
F1187197909
sbag607
ag607
asg17
I87
sba(i__main__
UserTrajectory
p611
(dp612
g4
(lp613
(ipoints
StayPoint
p614
(dp615
g8
g9
(g11
S'\x90?b\x05)\xfcC@'
tRp616
sg13
F1223222482
sg14
g9
(g11
S'F\xf7\x07%W\x16]@'
tRp617
sg16
F1223220778
sbag614
ag614
ag614
ag614
ag614
asg17
I88
sba(i__main__
UserTrajectory
p618
(dp619
g4
(lp620
(ipoints
StayPoint
p621
(dp622
g8
g9
(g11
S'\x93^\x0c\x1ds\xfeC@'
tRp623
sg13
F1209576829
sg14
g9
(g11
S'\x1f\x8eV]\xef\x1c]@'
tRp624
sg16
F1209531057
sbag621
ag621
ag621
ag621
asg17
I89
sba(i__main__
UserTrajectory
p625
(dp626
g4
(lp627
(ipoints
StayPoint
p628
(dp629
g8
g9
(g11
S'!\xf1>\xa1\xb1\xf0C@'
tRp630
sg13
F1185048952
sg14
g9
(g11
S'\x1f\x99*\x18\x15\x1f]@'
tRp631
sg16
F1185040730
sbasg17
I90
sba(i__main__
UserTrajectory
p632
(dp633
g4
(lp634
(ipoints
StayPoint
p635
(dp636
g8
g9
(g11
S'z\x05\xc8\xbd\xe6\x05D@'
tRp637
sg13
F1195750854
sg14
g9
(g11
S'\xab\x07\x18p)\x15]@'
tRp638
sg16
F1195749215
sbag635
ag635
ag635
asg17
I91
sba(i__main__
UserTrajectory
p639
(dp640
g4
(lp641
(ipoints
StayPoint
p642
(dp643
g8
g9
(g11
S'\xfc\xb2\x18\x89\xe0\x03D@'
tRp644
sg13
F1219019645
sg14
g9
(g11
S'\x88\xba\xb0f0\x1a]@'
tRp645
sg16
F1219013298
sbag642
ag642
ag642
ag642
ag642
ag642
ag642
ag642
ag642
ag642
ag642
ag642
ag642
ag642
ag642
ag642
ag642
ag642
ag642
ag642
ag642
ag642
ag642
ag642
ag642
ag642
ag642
ag642
ag642
ag642
ag642
ag642
ag642
ag642
ag642
ag642
ag642
ag642
ag642
ag642
ag642
ag642
ag642
ag642
ag642
ag642
ag642
ag642
ag642
ag642
ag642
ag642
ag642
asg17
I92
sba(i__main__
UserTrajectory
p646
(dp647
g4
(lp648
(ipoints
StayPoint
p649
(dp650
g8
g9
(g11
S'\xc9a\xe6\xf1\xea\xfcC@'
tRp651
sg13
F1218951341
sg14
g9
(g11
S'\xde+y\xd56\x15]@'
tRp652
sg16
F1218852159
sbag649
asg17
I93
sba(i__main__
UserTrajectory
p653
(dp654
g4
(lp655
(ipoints
StayPoint
p656
(dp657
g8
g9
(g11
S'7`\xff\x9f\xf1\xfcC@'
tRp658
sg13
F1186327991
sg14
g9
(g11
S'\xe6\x85V\xbc\xa8\x15]@'
tRp659
sg16
F1186300445
sbag656
ag656
ag656
ag656
ag656
ag656
ag656
ag656
ag656
ag656
asg17
I94
sba(i__main__
UserTrajectory
p660
(dp661
g4
(lp662
(ipoints
StayPoint
p663
(dp664
g8
g9
(g11
S'\x13_>\x13\x8fBD@'
tRp665
sg13
F1298537523
sg14
g9
(g11
S'{\x13\xcf\xb61\xfd\\@'
tRp666
sg16
F1298536052
sbag663
ag663
ag663
ag663
ag663
ag663
ag663
ag663
ag663
ag663
asg17
I95
sba(i__main__
UserTrajectory
p667
(dp668
g4
(lp669
(ipoints
StayPoint
p670
(dp671
g8
g9
(g11
S'\xd1\xec\xc8\x18\x05\x01D@'
tRp672
sg13
F1228163821
sg14
g9
(g11
S'\xca(\xf2Ur\x14]@'
tRp673
sg16
F1228159049
sbag670
ag670
ag670
ag670
ag670
ag670
asg17
I96
sba(i__main__
UserTrajectory
p674
(dp675
g4
(lp676
(ipoints
StayPoint
p677
(dp678
g8
g9
(g11
S'\x9e\x17\x01(\xd9\xfcC@'
tRp679
sg13
F1177050787
sg14
g9
(g11
S'\x1c\xb4\xa3K\x12\x15]@'
tRp680
sg16
F1177036844
sbag677
ag677
asg17
I97
sba(i__main__
UserTrajectory
p681
(dp682
g4
(lp683
(ipoints
StayPoint
p684
(dp685
g8
g9
(g11
S'\xa5\x02\xe8\xb8\xdb\xfeC@'
tRp686
sg13
F1180754918
sg14
g9
(g11
S'\x99He\xbf#\x15]@'
tRp687
sg16
F1180750229
sbag684
ag684
asg17
I98
sba(i__main__
UserTrajectory
p688
(dp689
g4
(lp690
(ipoints
StayPoint
p691
(dp692
g8
g9
(g11
S'\xa5|\xf5\xde\x05\x0f@@'
tRp693
sg13
F1201392729
sg14
g9
(g11
S'\xf8\r\xe3[ENZ@'
tRp694
sg16
F1201389990
sbag691
ag691
ag691
ag691
ag691
ag691
ag691
ag691
ag691
asg17
I99
sba(i__main__
UserTrajectory
p695
(dp696
g4
(lp697
(ipoints
StayPoint
p698
(dp699
g8
g9
(g11
S'\xc0r\xc6\xd3\x1d\xfdC@'
tRp700
sg13
F1311924031
sg14
g9
(g11
S'\xfd\x01\x88\xdb9\x15]@'
tRp701
sg16
F1311915885
sbasg17
I100
sba(i__main__
UserTrajectory
p702
(dp703
g4
(lp704
(ipoints
StayPoint
p705
(dp706
g8
g9
(g11
S'\x10\xdf\xf2\x14\x19\xe7C@'
tRp707
sg13
F1197094916
sg14
g9
(g11
S'\x80M\\\x0ca\x0b]@'
tRp708
sg16
F1197090990
sbag705
ag705
ag705
ag705
ag705
asg17
I101
sba(i__main__
UserTrajectory
p709
(dp710
g4
(lp711
sg17
I102
sba(i__main__
UserTrajectory
p712
(dp713
g4
(lp714
(ipoints
StayPoint
p715
(dp716
g8
g9
(g11
S'\xf0\xde\x8a\xc4\xf4\xfdC@'
tRp717
sg13
F1219799922
sg14
g9
(g11
S'bsQ].\x16]@'
tRp718
sg16
F1219788697
sbasg17
I103
sba(i__main__
UserTrajectory
p719
(dp720
g4
(lp721
(ipoints
StayPoint
p722
(dp723
g8
g9
(g11
S'\x0c\x8f\x9f\xa4&\xfdC@'
tRp724
sg13
F1223203073
sg14
g9
(g11
S'-\xc3/A\xd4\x13]@'
tRp725
sg16
F1223201319
sbag722
ag722
ag722
ag722
ag722
ag722
ag722
ag722
ag722
ag722
ag722
ag722
ag722
ag722
ag722
ag722
ag722
ag722
asg17
I104
sba(i__main__
UserTrajectory
p726
(dp727
g4
(lp728
(ipoints
StayPoint
p729
(dp730
g8
g9
(g11
S'\xb9@\x82\xe2\xc7\xfcC@'
tRp731
sg13
F1191382810
sg14
g9
(g11
S'<\x16@&j\x14]@'
tRp732
sg16
F1191381367
sbag729
ag729
ag729
ag729
ag729
asg17
I105
sba(i__main__
UserTrajectory
p733
(dp734
g4
(lp735
(ipoints
StayPoint
p736
(dp737
g8
g9
(g11
S'\x86\x82,\x1eq\xf4C@'
tRp738
sg13
F1191825017
sg14
g9
(g11
S')\x02P\xb2\x82\r]@'
tRp739
sg16
F1191819638
sbag736
ag736
ag736
ag736
asg17
I106
sba(i__main__
UserTrajectory
p740
(dp741
g4
(lp742
(ipoints
StayPoint
p743
(dp744
g8
g9
(g11
S'\x9a\xd9D\x85\x9f\xfcC@'
tRp745
sg13
F1191687238
sg14
g9
(g11
S'g\xcd\xba\xd6\xac\x15]@'
tRp746
sg16
F1191646058
sbag743
ag743
asg17
I107
sba(i__main__
UserTrajectory
p747
(dp748
g4
(lp749
(ipoints
StayPoint
p750
(dp751
g8
g9
(g11
S'\xe4\x88@\xa6STD@'
tRp752
sg13
F1191448800
sg14
g9
(g11
S'\xb5\xb3\xa2\x91\x80R]@'
tRp753
sg16
F1191447439
sbag750
asg17
I108
sba(i__main__
UserTrajectory
p754
(dp755
g4
(lp756
(ipoints
StayPoint
p757
(dp758
g8
g9
(g11
S'\xf7^\xd7\x8a\x91\x05D@'
tRp759
sg13
F1196425467
sg14
g9
(g11
S'F\xed~\x15 !]@'
tRp760
sg16
F1196423364
sbag757
ag757
asg17
I109
sba(i__main__
UserTrajectory
p761
(dp762
g4
(lp763
(ipoints
StayPoint
p764
(dp765
g8
g9
(g11
S'\x99\xad\x7fO\xf8\xfcC@'
tRp766
sg13
F1200662221
sg14
g9
(g11
S'\xcc\xe1,\xea\xcf\x13]@'
tRp767
sg16
F1200653585
sbag764
ag764
ag764
ag764
ag764
ag764
ag764
ag764
ag764
ag764
ag764
ag764
asg17
I110
sba(i__main__
UserTrajectory
p768
(dp769
g4
(lp770
(ipoints
StayPoint
p771
(dp772
g8
g9
(g11
S'zu\x8e\x01\xd9/A@'
tRp773
sg13
F1248841545
sg14
g9
(g11
S'\xe8\xd8\xc6\xb2s\xc9Z@'
tRp774
sg16
F1248838771
sbag771
asg17
I111
sba(i__main__
UserTrajectory
p775
(dp776
g4
(lp777
(ipoints
StayPoint
p778
(dp779
g8
g9
(g11
S'\xf3`\xec\\\x1c\xffC@'
tRp780
sg13
F1211597881
sg14
g9
(g11
S'\x81\xc0\xbe\xf1\x90\x11]@'
tRp781
sg16
F1211592293
sbag778
ag778
ag778
ag778
ag778
ag778
ag778
ag778
ag778
ag778
ag778
ag778
ag778
ag778
ag778
ag778
asg17
I112
sba(i__main__
UserTrajectory
p782
(dp783
g4
(lp784
(ipoints
StayPoint
p785
(dp786
g8
g9
(g11
S'Z\x08\xe9\x93\xbd\x06D@'
tRp787
sg13
F1273768677
sg14
g9
(g11
S'\x7fv\x0bP\x91\x19]@'
tRp788
sg16
F1273720890
sbag785
ag785
ag785
ag785
ag785
asg17
I113
sba(i__main__
UserTrajectory
p789
(dp790
g4
(lp791
(ipoints
StayPoint
p792
(dp793
g8
g9
(g11
S'\xf1\x13B\x91\xda\xfcC@'
tRp794
sg13
F1274675144
sg14
g9
(g11
S'\x13H\x9c(\x1c\x15]@'
tRp795
sg16
F1273517226
sbasg17
I114
sba(i__main__
UserTrajectory
p796
(dp797
g4
(lp798
(ipoints
StayPoint
p799
(dp800
g8
g9
(g11
S'&}\x10\xb8\xe4 A@'
tRp801
sg13
F1221248535
sg14
g9
(g11
S'\xf4e\x0e\xees7[@'
tRp802
sg16
F1221242919
sbag799
asg17
I115
sba(i__main__
UserTrajectory
p803
(dp804
g4
(lp805
sg17
I116
sba(i__main__
UserTrajectory
p806
(dp807
g4
(lp808
(ipoints
StayPoint
p809
(dp810
g8
g9
(g11
S'\x1e\x01\xd2\xf4\xcf\tD@'
tRp811
sg13
F1182706193
sg14
g9
(g11
S'\x86nj\x14\x06\x15]@'
tRp812
sg16
F1182495943
sbasg17
I117
sba(i__main__
UserTrajectory
p813
(dp814
g4
(lp815
(ipoints
StayPoint
p816
(dp817
g8
g9
(g11
S'\x06b\xc6\x01\xe1\xceG@'
tRp818
sg13
F1179612081
sg14
g9
(g11
S'6_\xbdw\xc1\x8c^@'
tRp819
sg16
F1179602772
sbag816
ag816
ag816
ag816
ag816
asg17
I118
sba(i__main__
UserTrajectory
p820
(dp821
g4
(lp822
(ipoints
StayPoint
p823
(dp824
g8
g9
(g11
S'\x90:7\x8c\x19\xffC@'
tRp825
sg13
F1217452232
sg14
g9
(g11
S'c\xf8\xa2\x82\xfe\x17]@'
tRp826
sg16
F1217447632
sbag823
ag823
ag823
ag823
ag823
ag823
ag823
ag823
ag823
ag823
ag823
ag823
ag823
ag823
ag823
ag823
ag823
asg17
I119
sba(i__main__
UserTrajectory
p827
(dp828
g4
(lp829
(ipoints
StayPoint
p830
(dp831
g8
g9
(g11
S'\x82H\xf4\xc6pFE@'
tRp832
sg13
F1253410021
sg14
g9
(g11
S'\xecU{G_J]@'
tRp833
sg16
F1253408267
sbag830
ag830
ag830
ag830
ag830
ag830
ag830
asg17
I120
sba(i__main__
UserTrajectory
p834
(dp835
g4
(lp836
(ipoints
StayPoint
p837
(dp838
g8
g9
(g11
S'\xf1\x85\n\x90\xa5\xf4C@'
tRp839
sg13
F1255268242
sg14
g9
(g11
S'*\xdftM\x85\x17]@'
tRp840
sg16
F1255250194
sbag837
ag837
ag837
asg17
I121
sba(i__main__
UserTrajectory
p841
(dp842
g4
(lp843
(ipoints
StayPoint
p844
(dp845
g8
g9
(g11
S'\xc9\x15v\x15\xf4\xfbC@'
tRp846
sg13
F1243511518
sg14
g9
(g11
S'\xeaEw\xf0\x91\x19]@'
tRp847
sg16
F1243507891
sbag844
ag844
ag844
asg17
I122
sba(i__main__
UserTrajectory
p848
(dp849
g4
(lp850
(ipoints
StayPoint
p851
(dp852
g8
g9
(g11
S'&\xac\xe5\x89\x98"A@'
tRp853
sg13
F1253710770
sg14
g9
(g11
S'\x15\xd2J\xb9\xa5;[@'
tRp854
sg16
F1253709245
sbag851
ag851
ag851
ag851
asg17
I123
sba(i__main__
UserTrajectory
p855
(dp856
g4
(lp857
(ipoints
StayPoint
p858
(dp859
g8
g9
(g11
S'\rx\x1b\xd8k\xf8C@'
tRp860
sg13
F1223013037
sg14
g9
(g11
S'\xcb\x92~\xbe\xec\x1a]@'
tRp861
sg16
F1223003475
sbag858
ag858
ag858
ag858
ag858
ag858
ag858
ag858
ag858
ag858
ag858
ag858
asg17
I124
sba(i__main__
UserTrajectory
p862
(dp863
g4
(lp864
(ipoints
StayPoint
p865
(dp866
g8
g9
(g11
S'W\xc2Ok\xfc\xfeC@'
tRp867
sg13
F1211570784
sg14
g9
(g11
S'\x02\xcch\x0c\xea\x14]@'
tRp868
sg16
F1211567067
sbag865
ag865
ag865
ag865
ag865
ag865
ag865
ag865
ag865
ag865
asg17
I125
sba(i__main__
UserTrajectory
p869
(dp870
g4
(lp871
(ipoints
StayPoint
p872
(dp873
g8
g9
(g11
S'\x0c\x8b\xa9\x10\xb5\xf3C@'
tRp874
sg13
F1212997284
sg14
g9
(g11
S'\xac\x01\xbb\xe6\x06\x1b]@'
tRp875
sg16
F1212994956
sbag872
ag872
ag872
ag872
ag872
ag872
ag872
ag872
ag872
ag872
ag872
ag872
ag872
ag872
ag872
ag872
ag872
ag872
ag872
ag872
ag872
ag872
ag872
ag872
ag872
ag872
ag872
ag872
asg17
I126
sba(i__main__
UserTrajectory
p876
(dp877
g4
(lp878
(ipoints
StayPoint
p879
(dp880
g8
g9
(g11
S'(\x93\xddg\x8b\xffD@'
tRp881
sg13
F1222889699
sg14
g9
(g11
S'\xe4j9P\xe4\x00`@'
tRp882
sg16
F1222887294
sbag879
ag879
ag879
ag879
ag879
ag879
ag879
ag879
ag879
ag879
ag879
ag879
ag879
asg17
I127
sba(i__main__
UserTrajectory
p883
(dp884
g4
(lp885
(ipoints
StayPoint
p886
(dp887
g8
g9
(g11
S'rV\xbe\xfdj\xb4G@'
tRp888
sg13
F1235844057
sg14
g9
(g11
S'\xac\xaf\x8ft\x89Z^\xc0'
tRp889
sg16
F1235841468
sbag886
ag886
ag886
ag886
ag886
ag886
ag886
ag886
ag886
ag886
ag886
ag886
ag886
ag886
ag886
ag886
asg17
I128
sba(i__main__
UserTrajectory
p890
(dp891
g4
(lp892
(ipoints
StayPoint
p893
(dp894
g8
g9
(g11
S'\xf3$\x12\xc0\x83\xf5C@'
tRp895
sg13
F1211867065
sg14
g9
(g11
S'\xe93{\xc84\x13]@'
tRp896
sg16
F1211864656
sbag893
ag893
ag893
ag893
ag893
ag893
ag893
ag893
ag893
ag893
ag893
ag893
ag893
ag893
asg17
I129
sba(i__main__
UserTrajectory
p897
(dp898
g4
(lp899
(ipoints
StayPoint
p900
(dp901
g8
g9
(g11
S'\r;\xaa\xb2\xed\xe0C@'
tRp902
sg13
F1247396099
sg14
g9
(g11
S'"\xd8R\xd1B\x15]@'
tRp903
sg16
F1247392950
sbag900
ag900
ag900
ag900
asg17
I130
sba(i__main__
UserTrajectory
p904
(dp905
g4
(lp906
(ipoints
StayPoint
p907
(dp908
g8
g9
(g11
S'\xb5d9\x93\x03\xfeC@'
tRp909
sg13
F1240315621
sg14
g9
(g11
S"\xae'\x1e\xe0{\x14]@"
tRp910
sg16
F1240307890
sbag907
ag907
ag907
ag907
ag907
ag907
ag907
ag907
ag907
ag907
ag907
ag907
asg17
I131
sba(i__main__
UserTrajectory
p911
(dp912
g4
(lp913
(ipoints
StayPoint
p914
(dp915
g8
g9
(g11
S'G\x83F\x0f\xd1\xb1=@'
tRp916
sg13
F1266555065
sg14
g9
(g11
S'-\x80/\xed\xf8e^@'
tRp917
sg16
F1266551015
sbag914
ag914
ag914
ag914
ag914
ag914
ag914
asg17
I132
sba(i__main__
UserTrajectory
p918
(dp919
g4
(lp920
(ipoints
StayPoint
p921
(dp922
g8
g9
(g11
S'\xab\x11\xf14\x8a\xbc8@'
tRp923
sg13
F1296386042
sg14
g9
(g11
S'\xadT\x15\xbe\xf7\x88]@'
tRp924
sg16
F1296380502
sbag921
ag921
asg17
I133
sba(i__main__
UserTrajectory
p925
(dp926
g4
(lp927
(ipoints
StayPoint
p928
(dp929
g8
g9
(g11
S'W\xd0\x8e.I\xf8C@'
tRp930
sg13
F1183782399
sg14
g9
(g11
S'#\xe9%wv\x1a]@'
tRp931
sg16
F1183779913
sbag928
ag928
ag928
ag928
ag928
ag928
ag928
asg17
I134
sba(i__main__
UserTrajectory
p932
(dp933
g4
(lp934
(ipoints
StayPoint
p935
(dp936
g8
g9
(g11
S'\x8d\x90\x08w\x11u:@'
tRp937
sg13
F1232826818
sg14
g9
(g11
S'\x9e\xb8\x85\x9b0\xe4[@'
tRp938
sg16
F1232825551
sbag935
ag935
ag935
ag935
ag935
ag935
asg17
I135
sba(i__main__
UserTrajectory
p939
(dp940
g4
(lp941
(ipoints
StayPoint
p942
(dp943
g8
g9
(g11
S'\x84\xd9\xb6\xf2\x16\xfdC@'
tRp944
sg13
F1212341260
sg14
g9
(g11
S'Kq\x12\xfc9\x15]@'
tRp945
sg16
F1212123333
sbag942
ag942
ag942
ag942
ag942
asg17
I136
sba(i__main__
UserTrajectory
p946
(dp947
g4
(lp948
(ipoints
StayPoint
p949
(dp950
g8
g9
(g11
S'\xb7u_\xd7[\xf2C@'
tRp951
sg13
F1296143219
sg14
g9
(g11
S'V\xce?\x03\x16\x14]@'
tRp952
sg16
F1296141829
sbag949
asg17
I137
sba(i__main__
UserTrajectory
p953
(dp954
g4
(lp955
(ipoints
StayPoint
p956
(dp957
g8
g9
(g11
S'\xb3M=\xe5\xab\xffC@'
tRp958
sg13
F1180156231
sg14
g9
(g11
S')F\x93<u\x14]@'
tRp959
sg16
F1180149933
sbag956
ag956
asg17
I138
sba(i__main__
UserTrajectory
p960
(dp961
g4
(lp962
(ipoints
StayPoint
p963
(dp964
g8
g9
(g11
S'\xe4\x88@\xa6STD@'
tRp965
sg13
F1191448800
sg14
g9
(g11
S'\xb5\xb3\xa2\x91\x80R]@'
tRp966
sg16
F1191447439
sbag963
ag963
ag963
ag963
asg17
I139
sba(i__main__
UserTrajectory
p967
(dp968
g4
(lp969
(ipoints
StayPoint
p970
(dp971
g8
g9
(g11
S'\x16,\xcd\xce\xaa\xedE@'
tRp972
sg13
F1246449708
sg14
g9
(g11
S'\x9f\x95[\xb7\x87\x05]@'
tRp973
sg16
F1246447669
sbag970
ag970
ag970
ag970
ag970
ag970
ag970
ag970
ag970
ag970
asg17
I140
sba(i__main__
UserTrajectory
p974
(dp975
g4
(lp976
(ipoints
StayPoint
p977
(dp978
g8
g9
(g11
S'\xb8N\x96\xb3\xfb\xfcC@'
tRp979
sg13
F1315710664
sg14
g9
(g11
S'\xaf:\xa5\x878\x15]@'
tRp980
sg16
F1315616979
sbag977
ag977
ag977
ag977
asg17
I141
sba(i__main__
UserTrajectory
p981
(dp982
g4
(lp983
(ipoints
StayPoint
p984
(dp985
g8
g9
(g11
S'\x1f\xa5\xf2\x95y\xe0\xf4?'
tRp986
sg13
F1216856735
sg14
g9
(g11
S'c\xed\x8f\xbfG\xf5Y@'
tRp987
sg16
F1216848734
sbag984
ag984
ag984
ag984
ag984
ag984
ag984
ag984
ag984
ag984
ag984
ag984
ag984
ag984
ag984
ag984
ag984
asg17
I142
sba(i__main__
UserTrajectory
p988
(dp989
g4
(lp990
(ipoints
StayPoint
p991
(dp992
g8
g9
(g11
S'\xb6\xe7\x0c\x9f\x07\xfeC@'
tRp993
sg13
F1252757739
sg14
g9
(g11
S'\xb0\xd9~\x1f\xfb\x1e]@'
tRp994
sg16
F1252751327
sbag991
ag991
ag991
ag991
ag991
ag991
ag991
ag991
asg17
I143
sba(i__main__
UserTrajectory
p995
(dp996
g4
(lp997
(ipoints
StayPoint
p998
(dp999
g8
g9
(g11
S',/\xa0Z\x0f\x8e\x1f@'
tRp1000
sg13
F1237705423
sg14
g9
(g11
S'3+\x04w\xe9\x92X@'
tRp1001
sg16
F1237700902
sbag998
ag998
ag998
ag998
ag998
ag998
ag998
ag998
ag998
ag998
ag998
ag998
ag998
ag998
asg17
I144
sba(i__main__
UserTrajectory
p1002
(dp1003
g4
(lp1004
(ipoints
StayPoint
p1005
(dp1006
g8
g9
(g11
S'\x19m\x90\xb8\xea\xfbC@'
tRp1007
sg13
F1211609236
sg14
g9
(g11
S'\xdeD\x80d\x17\x14]@'
tRp1008
sg16
F1211607371
sbag1005
ag1005
ag1005
ag1005
ag1005
ag1005
asg17
I145
sba(i__main__
UserTrajectory
p1009
(dp1010
g4
(lp1011
(ipoints
StayPoint
p1012
(dp1013
g8
g9
(g11
S'3\t\x9b\xf2\xda\xf9C@'
tRp1014
sg13
F1185889325
sg14
g9
(g11
S'=C_\x9a\xdd\x15]@'
tRp1015
sg16
F1185868828
sbag1012
asg17
I146
sba(i__main__
UserTrajectory
p1016
(dp1017
g4
(lp1018
(ipoints
StayPoint
p1019
(dp1020
g8
g9
(g11
S'i\xdb\xe8\x1bP\xfeC@'
tRp1021
sg13
F1299027389
sg14
g9
(g11
S'\x8a\x0f\xfd$\x88\x16]@'
tRp1022
sg16
F1298987945
sbag1019
asg17
I147
sba(i__main__
UserTrajectory
p1023
(dp1024
g4
(lp1025
(ipoints
StayPoint
p1026
(dp1027
g8
g9
(g11
S'\x05\x11\xcf\xffx\x9f>@'
tRp1028
sg13
F1306037016
sg14
g9
(g11
S']\xea\xe7M\xcd\x8f\\@'
tRp1029
sg16
F1306031504
sbag1026
ag1026
ag1026
ag1026
ag1026
asg17
I148
sba(i__main__
UserTrajectory
p1030
(dp1031
g4
(lp1032
(ipoints
StayPoint
p1033
(dp1034
g8
g9
(g11
S'.\xc3$\x01\x8f\xf7C@'
tRp1035
sg13
F1252763199
sg14
g9
(g11
S'\x887\xc6\xa9q\x18]@'
tRp1036
sg16
F1252757773
sbag1033
asg17
I149
sba(i__main__
UserTrajectory
p1037
(dp1038
g4
(lp1039
(ipoints
StayPoint
p1040
(dp1041
g8
g9
(g11
S'7`\xff\x9f\xf1\xfcC@'
tRp1042
sg13
F1186327991
sg14
g9
(g11
S'\xe6\x85V\xbc\xa8\x15]@'
tRp1043
sg16
F1186300445
sbag1040
ag1040
ag1040
ag1040
ag1040
ag1040
ag1040
ag1040
ag1040
ag1040
asg17
I150
sba(i__main__
UserTrajectory
p1044
(dp1045
g4
(lp1046
(ipoints
StayPoint
p1047
(dp1048
g8
g9
(g11
S'\xbbM\xb8WN\xfaC@'
tRp1049
sg13
F1255258057
sg14
g9
(g11
S'\xaf\x8dx\xb2K\x14]@'
tRp1050
sg16
F1255252578
sbag1047
ag1047
asg17
I151
sba(i__main__
UserTrajectory
p1051
(dp1052
g4
(lp1053
(ipoints
StayPoint
p1054
(dp1055
g8
g9
(g11
S'6\xd6\x0f\xfbN\x00D@'
tRp1056
sg13
F1219470108
sg14
g9
(g11
S'\xe6V\xad\xf1>\x14]@'
tRp1057
sg16
F1219467024
sbag1054
ag1054
ag1054
ag1054
ag1054
asg17
I152
sba(i__main__
UserTrajectory
p1058
(dp1059
g4
(lp1060
(ipoints
StayPoint
p1061
(dp1062
g8
g9
(g11
S'\x1c\xfe\x81\xb53\xfeC@'
tRp1063
sg13
F1304351497
sg14
g9
(g11
S'\x14.\xb9{\xc5\x1c]@'
tRp1064
sg16
F1304316219
sbag1061
ag1061
ag1061
ag1061
ag1061
ag1061
ag1061
ag1061
ag1061
ag1061
ag1061
ag1061
ag1061
ag1061
ag1061
ag1061
ag1061
ag1061
ag1061
ag1061
ag1061
ag1061
ag1061
ag1061
ag1061
ag1061
ag1061
ag1061
ag1061
ag1061
ag1061
ag1061
ag1061
ag1061
ag1061
ag1061
ag1061
ag1061
ag1061
ag1061
ag1061
ag1061
ag1061
ag1061
ag1061
ag1061
ag1061
ag1061
ag1061
ag1061
ag1061
ag1061
ag1061
ag1061
ag1061
ag1061
ag1061
ag1061
ag1061
ag1061
ag1061
ag1061
ag1061
ag1061
ag1061
ag1061
asg17
I153
sba(i__main__
UserTrajectory
p1065
(dp1066
g4
(lp1067
(ipoints
StayPoint
p1068
(dp1069
g8
g9
(g11
S'\x18\xfc\x10.\xf7\xfcC@'
tRp1070
sg13
F1179641587
sg14
g9
(g11
S'\xf8\xcc\x92\x005\x15]@'
tRp1071
sg16
F1179617943
sbag1068
ag1068
ag1068
ag1068
ag1068
ag1068
ag1068
ag1068
ag1068
ag1068
asg17
I154
sba(i__main__
UserTrajectory
p1072
(dp1073
g4
(lp1074
(ipoints
StayPoint
p1075
(dp1076
g8
g9
(g11
S'@(\x93\x8cs\xffC@'
tRp1077
sg13
F1243399829
sg14
g9
(g11
S'\'["\xda\xeb ]@'
tRp1078
sg16
F1243398068
sbag1075
ag1075
ag1075
ag1075
asg17
I155
sba(i__main__
UserTrajectory
p1079
(dp1080
g4
(lp1081
(ipoints
StayPoint
p1082
(dp1083
g8
g9
(g11
S'\x7f\xb9\x81\xeb6\xf9C@'
tRp1084
sg13
F1247110190
sg14
g9
(g11
S'\x06\x12+\xf7\x97\x17]@'
tRp1085
sg16
F1247108795
sbag1082
ag1082
asg17
I156
sba(i__main__
UserTrajectory
p1086
(dp1087
g4
(lp1088
(ipoints
StayPoint
p1089
(dp1090
g8
g9
(g11
S'\xd3\x0f\xc4\x8c\x03\xf4C@'
tRp1091
sg13
F1186642220
sg14
g9
(g11
S'm\x10X9\xb4\x1b]@'
tRp1092
sg16
F1186638966
sbag1089
ag1089
ag1089
ag1089
ag1089
ag1089
ag1089
ag1089
ag1089
ag1089
ag1089
asg17
I157
sba(i__main__
UserTrajectory
p1093
(dp1094
g4
(lp1095
(ipoints
StayPoint
p1096
(dp1097
g8
g9
(g11
S'\xf1o\x9aySK?@'
tRp1098
sg13
F1234917823
sg14
g9
(g11
S'\xce\xd4xb\xd3_^@'
tRp1099
sg16
F1234916128
sbag1096
ag1096
ag1096
ag1096
ag1096
ag1096
ag1096
asg17
I158
sba(i__main__
UserTrajectory
p1100
(dp1101
g4
(lp1102
(ipoints
StayPoint
p1103
(dp1104
g8
g9
(g11
S'\r\x10P!\xcb\x8c>@'
tRp1105
sg13
F1333225244
sg14
g9
(g11
S"\x1bX'\x03\xba\x92\\@"
tRp1106
sg16
F1333220864
sbag1103
ag1103
ag1103
ag1103
ag1103
ag1103
ag1103
asg17
I159
sba(i__main__
UserTrajectory
p1107
(dp1108
g4
(lp1109
(ipoints
StayPoint
p1110
(dp1111
g8
g9
(g11
S'h\xb3\xeas\xb5\xe3*@'
tRp1112
sg13
F1293527994
sg14
g9
(g11
S'\x18\x10m\xdaO\xfdY@'
tRp1113
sg16
F1293525455
sbag1110
ag1110
ag1110
ag1110
ag1110
ag1110
ag1110
asg17
I160
sba(i__main__
UserTrajectory
p1114
(dp1115
g4
(lp1116
(ipoints
StayPoint
p1117
(dp1118
g8
g9
(g11
S'\x89\xee\xf8\xe6\xa8\xf6C@'
tRp1119
sg13
F1176489020
sg14
g9
(g11
S'v\xa0\xb7\xec3\x14]@'
tRp1120
sg16
F1176447828
sbag1117
asg17
I161
sba(i__main__
UserTrajectory
p1121
(dp1122
g4
(lp1123
(ipoints
StayPoint
p1124
(dp1125
g8
g9
(g11
S'\x1c\x9c\xfeo1\x8dC@'
tRp1126
sg13
F1186127759
sg14
g9
(g11
S'\xec\x14\xacX\x98J]@'
tRp1127
sg16
F1186125390
sbag1124
asg17
I162
sba(i__main__
UserTrajectory
p1128
(dp1129
g4
(lp1130
(ipoints
StayPoint
p1131
(dp1132
g8
g9
(g11
S'\xf8\xc6\xf2\xdb0pC@'
tRp1133
sg13
F1304294465
sg14
g9
(g11
S'\x02\x05+>V\x83\\@'
tRp1134
sg16
F1304293029
sbag1131
ag1131
ag1131
ag1131
ag1131
ag1131
ag1131
ag1131
ag1131
ag1131
ag1131
ag1131
ag1131
ag1131
ag1131
ag1131
ag1131
ag1131
ag1131
ag1131
ag1131
ag1131
ag1131
ag1131
ag1131
ag1131
ag1131
ag1131
ag1131
ag1131
ag1131
ag1131
ag1131
ag1131
ag1131
ag1131
ag1131
ag1131
ag1131
ag1131
ag1131
ag1131
ag1131
ag1131
ag1131
ag1131
ag1131
ag1131
ag1131
ag1131
ag1131
ag1131
ag1131
ag1131
ag1131
asg17
I163
sba(i__main__
UserTrajectory
p1135
(dp1136
g4
(lp1137
(ipoints
StayPoint
p1138
(dp1139
g8
g9
(g11
S'\xa4\xb2\xc3\xd4\xe5\xfeC@'
tRp1140
sg13
F1196399180
sg14
g9
(g11
S'\xc5\x9cZA\x84\x14]@'
tRp1141
sg16
F1196397732
sbag1138
ag1138
asg17
I164
sba(i__main__
UserTrajectory
p1142
(dp1143
g4
(lp1144
(ipoints
StayPoint
p1145
(dp1146
g8
g9
(g11
S'O\x99\xb2\x9bX\xfdC@'
tRp1147
sg13
F1321661774
sg14
g9
(g11
S'IS%\xb3\xd5\x13]@'
tRp1148
sg16
F1321659074
sbag1145
ag1145
ag1145
ag1145
ag1145
ag1145
ag1145
ag1145
ag1145
ag1145
asg17
I165
sba(i__main__
UserTrajectory
p1149
(dp1150
g4
(lp1151
(ipoints
StayPoint
p1152
(dp1153
g8
g9
(g11
S'\x01\xb6o-\x14\xfdC@'
tRp1154
sg13
F1211820233
sg14
g9
(g11
S'\x7fpG0<\x15]@'
tRp1155
sg16
F1211781497
sbag1152
asg17
I166
sba(i__main__
UserTrajectory
p1156
(dp1157
g4
(lp1158
(ipoints
StayPoint
p1159
(dp1160
g8
g9
(g11
S'\xf6m\xd3\x1e\xec\xfcC@'
tRp1161
sg13
F1213090129
sg14
g9
(g11
S'\xa4\xfc\x1a\xe3"\x15]@'
tRp1162
sg16
F1213029106
sbag1159
ag1159
ag1159
ag1159
ag1159
ag1159
ag1159
ag1159
ag1159
ag1159
ag1159
ag1159
ag1159
ag1159
ag1159
ag1159
ag1159
ag1159
ag1159
ag1159
ag1159
ag1159
ag1159
ag1159
ag1159
ag1159
ag1159
ag1159
ag1159
ag1159
ag1159
ag1159
ag1159
asg17
I167
sba(i__main__
UserTrajectory
p1163
(dp1164
g4
(lp1165
(ipoints
StayPoint
p1166
(dp1167
g8
g9
(g11
S'\xc1\xbd\xe3\xb2\x15\xc9@@'
tRp1168
sg13
F1254284460
sg14
g9
(g11
S'`\xb0\xcc\xf9m\x82\\@'
tRp1169
sg16
F1254283028
sbag1166
asg17
I168
sba(i__main__
UserTrajectory
p1170
(dp1171
g4
(lp1172
(ipoints
StayPoint
p1173
(dp1174
g8
g9
(g11
S'\xdf\x88B!\xd7\xfcC@'
tRp1175
sg13
F1274665901
sg14
g9
(g11
S'\xa1\x00\xe6\xac&\x15]@'
tRp1176
sg16
F1274635845
sbag1173
asg17
I169
sba(i__main__
UserTrajectory
p1177
(dp1178
g4
(lp1179
sg17
I170
sba(i__main__
UserTrajectory
p1180
(dp1181
g4
(lp1182
(ipoints
StayPoint
p1183
(dp1184
g8
g9
(g11
S'\xfd\x99\x08\x1b\x9e\xfeC@'
tRp1185
sg13
F1185591684
sg14
g9
(g11
S'\x03\x99\xe0\xc1<\x13]@'
tRp1186
sg16
F1185588939
sbag1183
ag1183
ag1183
ag1183
asg17
I171
sba(i__main__
UserTrajectory
p1187
(dp1188
g4
(lp1189
(ipoints
StayPoint
p1190
(dp1191
g8
g9
(g11
S'\xa1\xb8xv\xfe\x0cN@'
tRp1192
sg13
F1214595499
sg14
g9
(g11
S'9=4\xa4\x1c\xaeb\xc0'
tRp1193
sg16
F1214589372
sbag1190
ag1190
ag1190
ag1190
ag1190
ag1190
ag1190
ag1190
ag1190
ag1190
ag1190
ag1190
ag1190
asg17
I172
sba(i__main__
UserTrajectory
p1194
(dp1195
g4
(lp1196
(ipoints
StayPoint
p1197
(dp1198
g8
g9
(g11
S'G\x1cH6\x0c\xfcC@'
tRp1199
sg13
F1196758091
sg14
g9
(g11
S'\xc0\x05p\xb4\x05\x14]@'
tRp1200
sg16
F1196596844
sbag1197
ag1197
ag1197
ag1197
ag1197
ag1197
ag1197
asg17
I173
sba(i__main__
UserTrajectory
p1201
(dp1202
g4
(lp1203
(ipoints
StayPoint
p1204
(dp1205
g8
g9
(g11
S'\xbc\x9a\xed\xa8\xf5\xfbC@'
tRp1206
sg13
F1200026977
sg14
g9
(g11
S'\x0b6\xb1\x0f\x14\x14]@'
tRp1207
sg16
F1200025556
sbag1204
ag1204
ag1204
ag1204
ag1204
asg17
I174
sba(i__main__
UserTrajectory
p1208
(dp1209
g4
(lp1210
(ipoints
StayPoint
p1211
(dp1212
g8
g9
(g11
S'\x1bJ\xc4\x1f\xf6\xfcC@'
tRp1213
sg13
F1192769123
sg14
g9
(g11
S'w\xca\xa0\x8b$\x15]@'
tRp1214
sg16
F1192765899
sbag1211
ag1211
asg17
I175
sba(i__main__
UserTrajectory
p1215
(dp1216
g4
(lp1217
(ipoints
StayPoint
p1218
(dp1219
g8
g9
(g11
S'\x90\xa3&\xe7\xb1\xfeC@'
tRp1220
sg13
F1196395230
sg14
g9
(g11
S'\xba\xbf\xec\x9e\xbc\x15]@'
tRp1221
sg16
F1196389847
sbag1218
asg17
I176
sba(i__main__
UserTrajectory
p1222
(dp1223
g4
(lp1224
(ipoints
StayPoint
p1225
(dp1226
g8
g9
(g11
S'\xa2n\x96\xc0\x11\xf8C@'
tRp1227
sg13
F1253356990
sg14
g9
(g11
S'\xf0\xe4e~\xee\x18]@'
tRp1228
sg16
F1253355215
sbasg17
I177
sba(i__main__
UserTrajectory
p1229
(dp1230
g4
(lp1231
sg17
I178
sba(i__main__
UserTrajectory
p1232
(dp1233
g4
(lp1234
(ipoints
StayPoint
p1235
(dp1236
g8
g9
(g11
S'\xbe\xb7\x97\xcdL\x0bD@'
tRp1237
sg13
F1220694971
sg14
g9
(g11
S'\xff\xf3\xe4l\x93\x13]@'
tRp1238
sg16
F1220689211
sbag1235
ag1235
ag1235
ag1235
ag1235
ag1235
ag1235
ag1235
asg17
I179
sba(i__main__
UserTrajectory
p1239
(dp1240
g4
(lp1241
(ipoints
StayPoint
p1242
(dp1243
g8
g9
(g11
S'\xf4=4=r\xf5<@'
tRp1244
sg13
F1243612832
sg14
g9
(g11
S'MT\x92\xba\xbd\xf0\\@'
tRp1245
sg16
F1243611577
sbag1242
ag1242
ag1242
ag1242
ag1242
asg17
I180
sba(i__main__
UserTrajectory
p1246
(dp1247
g4
(lp1248
(ipoints
StayPoint
p1249
(dp1250
g8
g9
(g11
S' """"\xfdC@'
tRp1251
sg13
F1197781193
sg14
g9
(g11
S'a\xa0\xd3\x06\xba\x13]@'
tRp1252
sg16
F1197771926
sbag1249
ag1249
ag1249
ag1249
ag1249
ag1249
ag1249
ag1249
asg17
I181
sba.